target datalayout = "e-m:e-p270:32:32-p271:32:32-p272:64:64-i64:64-i128:128-f80:128-n8:16:32:64-S128"
target triple = "x86_64-pc-linux-gnu"

; Function Attrs: nounwind uwtable
define hidden void @filepath_set_unix_separator(ptr noundef %0) #0 {
  %2 = alloca ptr, align 8
  %3 = alloca i32, align 4
  %4 = alloca i32, align 4
  store ptr %0, ptr %2, align 8, !tbaa !41
  call void @llvm.lifetime.start.p0(i64 4, ptr %3) #13
  %5 = load ptr, ptr %2, align 8, !tbaa !41
  %6 = call i64 @strlen(ptr noundef %5) #15
  %7 = trunc i64 %6 to i32
  store i32 %7, ptr %3, align 4, !tbaa !16
  call void @llvm.lifetime.start.p0(i64 4, ptr %4) #13
  store i32 0, ptr %4, align 4, !tbaa !16
  br label %8

8:                                                ; preds = %27, %1
  %9 = load i32, ptr %4, align 4, !tbaa !16
  %10 = load i32, ptr %3, align 4, !tbaa !16
  %11 = icmp slt i32 %9, %10
  br i1 %11, label %13, label %12

12:                                               ; preds = %8
  call void @llvm.lifetime.end.p0(i64 4, ptr %4) #13
  br label %30

13:                                               ; preds = %8
  %14 = load ptr, ptr %2, align 8, !tbaa !41
  %15 = load i32, ptr %4, align 4, !tbaa !16
  %16 = sext i32 %15 to i64
  %17 = getelementptr inbounds i8, ptr %14, i64 %16
  %18 = load i8, ptr %17, align 1, !tbaa !47
  %19 = sext i8 %18 to i32
  %20 = icmp eq i32 %19, 92
  br i1 %20, label %21, label %26

21:                                               ; preds = %13
  %22 = load ptr, ptr %2, align 8, !tbaa !41
  %23 = load i32, ptr %4, align 4, !tbaa !16
  %24 = sext i32 %23 to i64
  %25 = getelementptr inbounds i8, ptr %22, i64 %24
  store i8 47, ptr %25, align 1, !tbaa !47
  br label %26

26:                                               ; preds = %21, %13
  br label %27

27:                                               ; preds = %26
  %28 = load i32, ptr %4, align 4, !tbaa !16
  %29 = add nsw i32 %28, 1
  store i32 %29, ptr %4, align 4, !tbaa !16
  br label %8

30:                                               ; preds = %12
  call void @llvm.lifetime.end.p0(i64 4, ptr %3) #13
  ret void
}