; Function Attrs: nofree nounwind memory(argmem: readwrite) uwtable
define hidden void @filepath_set_unix_separator(ptr noundef captures(none) %0) local_unnamed_addr #15 {
  %2 = tail call i64 @strlen(ptr noundef nonnull dereferenceable(1) %0) #27
  %3 = trunc i64 %2 to i32
  %4 = icmp sgt i32 %3, 0
  br i1 %4, label %.lr.ph.preheader, label %._crit_edge

.lr.ph.preheader:                                 ; preds = %1
  %wide.trip.count = and i64 %2, 2147483647
  br label %.lr.ph

._crit_edge:                                      ; preds = %9, %1
  ret void

.lr.ph:                                           ; preds = %.lr.ph.preheader, %9
  %indvars.iv = phi i64 [ 0, %.lr.ph.preheader ], [ %indvars.iv.next, %9 ]
  %5 = getelementptr inbounds nuw i8, ptr %0, i64 %indvars.iv
  %6 = load i8, ptr %5, align 1, !tbaa !73
  %7 = icmp eq i8 %6, 92
  br i1 %7, label %8, label %9

8:                                                ; preds = %.lr.ph
  store i8 47, ptr %5, align 1, !tbaa !73
  br label %9

9:                                                ; preds = %.lr.ph, %8
  %indvars.iv.next = add nuw nsw i64 %indvars.iv, 1
  %exitcond.not = icmp eq i64 %indvars.iv.next, %wide.trip.count
  br i1 %exitcond.not, label %._crit_edge, label %.lr.ph
}